; Function Attrs: mustprogress uwtable
define void @_ZN2cv10fitEllipseERKNS_11_InputArrayE(ptr dead_on_unwind noalias writable sret(%"class.cv::RotatedRect") align 4 captures(none) %0, ptr noundef nonnull align 8 dereferenceable(24) %1) local_unnamed_addr #4 personality ptr @__gxx_personality_v0 {
  %3 = alloca %"class.cv::utils::trace::details::Region", align 8
  %4 = alloca %"class.cv::Mat", align 8
  %5 = alloca %"class.cv::_InputArray", align 8
  %6 = alloca %"class.cv::_InputArray", align 8
  call void @llvm.lifetime.start.p0(i64 16, ptr nonnull %3) #18
  call void @_ZN2cv5utils5trace7details6RegionC1ERKNS3_21LocationStaticStorageE(ptr noundef nonnull align 8 dereferenceable(12) %3, ptr noundef nonnull align 8 dereferenceable(32) @_ZZN2cv10fitEllipseERKNS_11_InputArrayEE25__cv_trace_location_fn507)
  call void @llvm.lifetime.start.p0(i64 96, ptr nonnull %4) #18
  %7 = invoke noundef i32 @_ZNK2cv11_InputArray4kindEv(ptr noundef nonnull align 8 dereferenceable(24) %1)
          to label %.noexc unwind label %29

.noexc:                                           ; preds = %2
  %8 = icmp eq i32 %7, 65536
  br i1 %8, label %9, label %12

9:                                                ; preds = %.noexc
  %10 = getelementptr inbounds nuw i8, ptr %1, i64 8
  %11 = load ptr, ptr %10, align 8, !tbaa !3, !noalias !50
  invoke void @_ZN2cv3MatC1ERKS0_(ptr noundef nonnull align 8 dereferenceable(96) %4, ptr noundef nonnull align 8 dereferenceable(96) %11)
          to label %_ZNK2cv11_InputArray6getMatEi.exit unwind label %29

12:                                               ; preds = %.noexc
  invoke void @_ZNK2cv11_InputArray7getMat_Ei(ptr dead_on_unwind nonnull writable sret(%"class.cv::Mat") align 8 %4, ptr noundef nonnull align 8 dereferenceable(24) %1, i32 noundef -1)
          to label %_ZNK2cv11_InputArray6getMatEi.exit unwind label %29

_ZNK2cv11_InputArray6getMatEi.exit:               ; preds = %9, %12
  %13 = invoke noundef i32 @_ZNK2cv3Mat11checkVectorEiib(ptr noundef nonnull align 8 dereferenceable(96) %4, i32 noundef 2, i32 noundef -1, i1 noundef zeroext true)
          to label %14 unwind label %31

14:                                               ; preds = %_ZNK2cv11_InputArray6getMatEi.exit
  %.not = icmp eq i32 %13, 5
  br i1 %.not, label %15, label %19

15:                                               ; preds = %14
  call void @llvm.lifetime.start.p0(i64 24, ptr nonnull %5) #18
  %16 = getelementptr inbounds nuw i8, ptr %5, i64 16
  store i32 0, ptr %16, align 8, !tbaa !53
  %17 = getelementptr inbounds nuw i8, ptr %5, i64 20
  store i32 0, ptr %17, align 4, !tbaa !54
  store i32 16842752, ptr %5, align 8, !tbaa !55
  %18 = getelementptr inbounds nuw i8, ptr %5, i64 8
  store ptr %4, ptr %18, align 8, !tbaa !3
  invoke void @_ZN2cv16fitEllipseDirectERKNS_11_InputArrayE(ptr dead_on_unwind writable sret(%"class.cv::RotatedRect") align 4 %0, ptr noundef nonnull align 8 dereferenceable(24) %5)
          to label %.critedge32 unwind label %33

19:                                               ; preds = %14
  call void @llvm.lifetime.start.p0(i64 24, ptr nonnull %6) #18
  %20 = getelementptr inbounds nuw i8, ptr %6, i64 16
  store i32 0, ptr %20, align 8, !tbaa !53
  %21 = getelementptr inbounds nuw i8, ptr %6, i64 20
  store i32 0, ptr %21, align 4, !tbaa !54
  store i32 16842752, ptr %6, align 8, !tbaa !55
  %22 = getelementptr inbounds nuw i8, ptr %6, i64 8
  store ptr %4, ptr %22, align 8, !tbaa !3
  invoke fastcc void @_ZN2cvL18fitEllipseNoDirectERKNS_11_InputArrayE(ptr dead_on_unwind noalias writable align 4 %0, ptr noundef nonnull align 8 dereferenceable(24) %6)
          to label %.critedge unwind label %35

.critedge:                                        ; preds = %19
  call void @llvm.lifetime.end.p0(i64 24, ptr nonnull %6) #18
  br label %.critedge31

.critedge32:                                      ; preds = %15
  call void @llvm.lifetime.end.p0(i64 24, ptr nonnull %5) #18
  br label %.critedge31

.critedge31:                                      ; preds = %.critedge, %.critedge32
  call void @_ZN2cv3MatD1Ev(ptr noundef nonnull align 8 dereferenceable(96) %4) #18
  call void @llvm.lifetime.end.p0(i64 96, ptr nonnull %4) #18
  %23 = getelementptr inbounds nuw i8, ptr %3, i64 8
  %24 = load i32, ptr %23, align 8, !tbaa !39
  %.not.i = icmp eq i32 %24, 0
  br i1 %.not.i, label %_ZN2cv5utils5trace7details6RegionD2Ev.exit, label %25

25:                                               ; preds = %.critedge31
  invoke void @_ZN2cv5utils5trace7details6Region7destroyEv(ptr noundef nonnull align 8 dereferenceable(12) %3)
          to label %_ZN2cv5utils5trace7details6RegionD2Ev.exit unwind label %26

26:                                               ; preds = %25
  %27 = landingpad { ptr, i32 }
          catch ptr null
  %28 = extractvalue { ptr, i32 } %27, 0
  call void @__clang_call_terminate(ptr %28) #21
  unreachable

_ZN2cv5utils5trace7details6RegionD2Ev.exit:       ; preds = %.critedge31, %25
  call void @llvm.lifetime.end.p0(i64 16, ptr nonnull %3) #18
  ret void

29:                                               ; preds = %12, %9, %2
  %30 = landingpad { ptr, i32 }
          cleanup
  br label %38

31:                                               ; preds = %_ZNK2cv11_InputArray6getMatEi.exit
  %32 = landingpad { ptr, i32 }
          cleanup
  br label %37

33:                                               ; preds = %15
  %34 = landingpad { ptr, i32 }
          cleanup
  call void @llvm.lifetime.end.p0(i64 24, ptr nonnull %5) #18
  br label %37

35:                                               ; preds = %19
  %36 = landingpad { ptr, i32 }
          cleanup
  call void @llvm.lifetime.end.p0(i64 24, ptr nonnull %6) #18
  br label %37

37:                                               ; preds = %35, %33, %31
  %.pn24.pn.pn = phi { ptr, i32 } [ %34, %33 ], [ %36, %35 ], [ %32, %31 ]
  call void @_ZN2cv3MatD1Ev(ptr noundef nonnull align 8 dereferenceable(96) %4) #18
  br label %38

38:                                               ; preds = %37, %29
  %.pn24.pn.pn.pn = phi { ptr, i32 } [ %.pn24.pn.pn, %37 ], [ %30, %29 ]
  call void @llvm.lifetime.end.p0(i64 96, ptr nonnull %4) #18
  call void @_ZN2cv5utils5trace7details6RegionD2Ev(ptr noundef nonnull align 8 dereferenceable(12) %3) #18
  call void @llvm.lifetime.end.p0(i64 16, ptr nonnull %3) #18
  resume { ptr, i32 } %.pn24.pn.pn.pn
}